; Function Attrs: mustprogress uwtable
define dso_local noundef zeroext i1 @_ZNK8Function15is_var_on_stackEPK8VariablePK9Statement(ptr noundef nonnull readonly align 8 captures(none) dereferenceable(424) %0, ptr noundef %1, ptr noundef readonly captures(none) %2) local_unnamed_addr #4 align 2 {
  %4 = getelementptr inbounds nuw i8, ptr %0, i64 32
  %5 = getelementptr inbounds nuw i8, ptr %0, i64 40
  %6 = load ptr, ptr %5, align 8
  %7 = load ptr, ptr %4, align 8
  %.not15 = icmp eq ptr %6, %7
  br i1 %.not15, label %.preheader.preheader, label %.lr.ph

.preheader.preheader:                             ; preds = %8, %3
  br label %.preheader

8:                                                ; preds = %.lr.ph
  %9 = add nuw i64 %.01014, 1
  %10 = load ptr, ptr %5, align 8
  %11 = load ptr, ptr %4, align 8
  %12 = ptrtoint ptr %10 to i64
  %13 = ptrtoint ptr %11 to i64
  %14 = sub i64 %12, %13
  %15 = ashr exact i64 %14, 3
  %16 = icmp ult i64 %9, %15
  br i1 %16, label %.lr.ph, label %.preheader.preheader, !llvm.loop !14

.lr.ph:                                           ; preds = %3, %8
  %17 = phi ptr [ %11, %8 ], [ %7, %3 ]
  %.01014 = phi i64 [ %9, %8 ], [ 0, %3 ]
  %18 = getelementptr inbounds ptr, ptr %17, i64 %.01014
  %19 = load ptr, ptr %18, align 8
  %20 = tail call noundef zeroext i1 @_ZNK8Variable5matchEPKS_(ptr noundef nonnull align 8 dereferenceable(200) %19, ptr noundef %1)
  br i1 %20, label %.loopexit, label %8

.preheader:                                       ; preds = %.preheader.preheader, %21
  %.pn = phi ptr [ %.0, %21 ], [ %2, %.preheader.preheader ]
  %.0.in = getelementptr inbounds nuw i8, ptr %.pn, i64 24
  %.0 = load ptr, ptr %.0.in, align 8
  %.not.not.not = icmp ne ptr %.0, null
  br i1 %.not.not.not, label %21, label %.loopexit

21:                                               ; preds = %.preheader
  %22 = getelementptr inbounds nuw i8, ptr %.0, i64 80
  %23 = tail call noundef i32 @_Z20find_variable_in_setRKSt6vectorIP8VariableSaIS1_EEPKS0_(ptr noundef nonnull align 8 dereferenceable(24) %22, ptr noundef %1)
  %.not12 = icmp eq i32 %23, -1
  br i1 %.not12, label %.preheader, label %.loopexit, !llvm.loop !15

.loopexit:                                        ; preds = %.lr.ph, %.preheader, %21
  %.011 = phi i1 [ %.not.not.not, %21 ], [ %.not.not.not, %.preheader ], [ true, %.lr.ph ]
  ret i1 %.011
}